target datalayout = "e-m:e-p270:32:32-p271:32:32-p272:64:64-i64:64-i128:128-f80:128-n8:16:32:64-S128"
target triple = "x86_64-pc-linux-gnu"

@.str = private unnamed_addr constant [121 x i8] c"generated/home/dtcxzyw/WorkSpace/Projects/compilers/llvm-opt-benchmark/bench/lief/bench_build/mbed_src/library/pkparse.c\00", align 1

; Function Attrs: inlinehint nounwind uwtable
define internal i32 @mbedtls_error_add(i32 noundef %0, i32 noundef %1, ptr noundef %2, i32 noundef %3) #3 {
  %5 = alloca i32, align 4
  %6 = alloca i32, align 4
  %7 = alloca ptr, align 8
  %8 = alloca i32, align 4
  store i32 %0, ptr %5, align 4, !tbaa !13
  store i32 %1, ptr %6, align 4, !tbaa !13
  store ptr %2, ptr %7, align 8, !tbaa !9
  store i32 %3, ptr %8, align 4, !tbaa !13
  %9 = load i32, ptr %5, align 4, !tbaa !13
  %10 = load i32, ptr %6, align 4, !tbaa !13
  %11 = add nsw i32 %9, %10
  ret i32 %11
}

; Function Attrs: nounwind uwtable
define internal i32 @pk_parse_key_rfc8410_der(ptr noundef %0, ptr noundef %1, i64 noundef %2, ptr noundef %3, ptr noundef %4, ptr noundef %5) #0 {
  %7 = alloca i32, align 4
  %8 = alloca ptr, align 8
  %9 = alloca ptr, align 8
  %10 = alloca i64, align 8
  %11 = alloca ptr, align 8
  %12 = alloca ptr, align 8
  %13 = alloca ptr, align 8
  %14 = alloca i32, align 4
  %15 = alloca i64, align 8
  %16 = alloca i32, align 4
  store ptr %0, ptr %8, align 8, !tbaa !11
  store ptr %1, ptr %9, align 8, !tbaa !9
  store i64 %2, ptr %10, align 8, !tbaa !15
  store ptr %3, ptr %11, align 8, !tbaa !9
  store ptr %4, ptr %12, align 8, !tbaa !19
  store ptr %5, ptr %13, align 8, !tbaa !19
  call void @llvm.lifetime.start.p0(i64 4, ptr %14) #9
  store i32 -110, ptr %14, align 4, !tbaa !13
  call void @llvm.lifetime.start.p0(i64 8, ptr %15) #9
  %17 = load ptr, ptr %9, align 8, !tbaa !9
  %18 = load i64, ptr %10, align 8, !tbaa !15
  %19 = getelementptr inbounds nuw i8, ptr %17, i64 %18
  %20 = call i32 @mbedtls_asn1_get_tag(ptr noundef %9, ptr noundef %19, ptr noundef %15, i32 noundef 4)
  store i32 %20, ptr %14, align 4, !tbaa !13
  %21 = icmp ne i32 %20, 0
  br i1 %21, label %22, label %25

22:                                               ; preds = %6
  %23 = load i32, ptr %14, align 4, !tbaa !13
  %24 = call i32 @mbedtls_error_add(i32 noundef -15616, i32 noundef %23, ptr noundef @.str, i32 noundef 437)
  store i32 %24, ptr %7, align 4
  store i32 1, ptr %16, align 4
  br label %52

25:                                               ; preds = %6
  %26 = load ptr, ptr %9, align 8, !tbaa !9
  %27 = load i64, ptr %15, align 8, !tbaa !15
  %28 = getelementptr inbounds nuw i8, ptr %26, i64 %27
  %29 = load ptr, ptr %11, align 8, !tbaa !9
  %30 = icmp ne ptr %28, %29
  br i1 %30, label %31, label %32

31:                                               ; preds = %25
  store i32 -15616, ptr %7, align 4
  store i32 1, ptr %16, align 4
  br label %52

32:                                               ; preds = %25
  %33 = load ptr, ptr %8, align 8, !tbaa !11
  %34 = load ptr, ptr %9, align 8, !tbaa !9
  %35 = load i64, ptr %15, align 8, !tbaa !15
  %36 = call i32 @mbedtls_pk_ecc_set_key(ptr noundef %33, ptr noundef %34, i64 noundef %35)
  store i32 %36, ptr %14, align 4, !tbaa !13
  %37 = load i32, ptr %14, align 4, !tbaa !13
  %38 = icmp ne i32 %37, 0
  br i1 %38, label %39, label %41

39:                                               ; preds = %32
  %40 = load i32, ptr %14, align 4, !tbaa !13
  store i32 %40, ptr %7, align 4
  store i32 1, ptr %16, align 4
  br label %52

41:                                               ; preds = %32
  %42 = load ptr, ptr %8, align 8, !tbaa !11
  %43 = load ptr, ptr %9, align 8, !tbaa !9
  %44 = load i64, ptr %15, align 8, !tbaa !15
  %45 = load ptr, ptr %12, align 8, !tbaa !19
  %46 = load ptr, ptr %13, align 8, !tbaa !19
  %47 = call i32 @mbedtls_pk_ecc_set_pubkey_from_prv(ptr noundef %42, ptr noundef %43, i64 noundef %44, ptr noundef %45, ptr noundef %46)
  store i32 %47, ptr %14, align 4, !tbaa !13
  %48 = icmp ne i32 %47, 0
  br i1 %48, label %49, label %51

49:                                               ; preds = %41
  %50 = load i32, ptr %14, align 4, !tbaa !13
  store i32 %50, ptr %7, align 4
  store i32 1, ptr %16, align 4
  br label %52

51:                                               ; preds = %41
  store i32 0, ptr %7, align 4
  store i32 1, ptr %16, align 4
  br label %52

52:                                               ; preds = %51, %49, %39, %31, %22
  call void @llvm.lifetime.end.p0(i64 8, ptr %15) #9
  call void @llvm.lifetime.end.p0(i64 4, ptr %14) #9
  %53 = load i32, ptr %7, align 4
  ret i32 %53
}