; Function Attrs: nounwind uwtable
define internal fastcc i32 @pk_parse_key_rfc8410_der(ptr noundef %0, ptr noundef %1, i64 noundef %2, ptr noundef readnone %3, ptr noundef %4, ptr noundef %5) unnamed_addr #0 {
  %7 = alloca ptr, align 8
  %8 = alloca i64, align 8
  store ptr %1, ptr %7, align 8, !tbaa !7
  call void @llvm.lifetime.start.p0(i64 8, ptr nonnull %8) #9
  %9 = getelementptr inbounds nuw i8, ptr %1, i64 %2
  %10 = call i32 @mbedtls_asn1_get_tag(ptr noundef nonnull %7, ptr noundef %9, ptr noundef nonnull %8, i32 noundef 4) #9
  %.not = icmp eq i32 %10, 0
  br i1 %.not, label %13, label %11

11:                                               ; preds = %6
  %12 = add nsw i32 %10, -15616
  br label %23

13:                                               ; preds = %6
  %14 = load ptr, ptr %7, align 8, !tbaa !7
  %15 = load i64, ptr %8, align 8, !tbaa !10
  %16 = getelementptr inbounds nuw i8, ptr %14, i64 %15
  %.not13 = icmp eq ptr %16, %3
  br i1 %.not13, label %17, label %23

17:                                               ; preds = %13
  %18 = call i32 @mbedtls_pk_ecc_set_key(ptr noundef %0, ptr noundef %14, i64 noundef %15) #9
  %.not14 = icmp eq i32 %18, 0
  br i1 %.not14, label %19, label %23

19:                                               ; preds = %17
  %20 = load ptr, ptr %7, align 8, !tbaa !7
  %21 = load i64, ptr %8, align 8, !tbaa !10
  %22 = call i32 @mbedtls_pk_ecc_set_pubkey_from_prv(ptr noundef %0, ptr noundef %20, i64 noundef %21, ptr noundef %4, ptr noundef %5) #9
  br label %23

23:                                               ; preds = %19, %17, %13, %11
  %.0 = phi i32 [ %12, %11 ], [ -15616, %13 ], [ %18, %17 ], [ %22, %19 ]
  call void @llvm.lifetime.end.p0(i64 8, ptr nonnull %8) #9
  ret i32 %.0
}